target datalayout = "e-m:e-p270:32:32-p271:32:32-p272:64:64-i64:64-i128:128-f80:128-n8:16:32:64-S128"
target triple = "x86_64-pc-linux-gnu"

%class.QString = type { %struct.QArrayDataPointer }
%struct.QArrayDataPointer = type { ptr, ptr, i64 }
%class.QObject = type { ptr, %class.QScopedPointer }
%class.QScopedPointer = type { ptr }
%struct.nstime_t = type { i64, i32 }
%class.QBrush = type { %"class.std::unique_ptr" }
%"class.std::unique_ptr" = type { %"struct.std::__uniq_ptr_data" }
%"struct.std::__uniq_ptr_data" = type { %"class.std::__uniq_ptr_impl" }
%"class.std::__uniq_ptr_impl" = type { %"class.std::tuple" }
%"class.std::tuple" = type { %"struct.std::_Tuple_impl" }
%"struct.std::_Tuple_impl" = type { %"struct.std::_Head_base.28" }
%"struct.std::_Head_base.28" = type { ptr }
%class.IOGraph = type <{ %class.QObject, i32, i32, ptr, %class.QString, %class.QString, i8, i8, i8, [5 x i8], ptr, ptr, %class.QString, %class.QString, %class.QBrush, i32, [4 x i8], %class.QString, i32, i32, %struct.nstime_t, i8, [7 x i8], %"class.std::vector", i32, [4 x i8] }>
%"class.std::vector" = type { %"struct.std::_Vector_base" }
%"struct.std::_Vector_base" = type { %"struct.std::_Vector_base<_io_graph_item_t, std::allocator<_io_graph_item_t>>::_Vector_impl" }
%"struct.std::_Vector_base<_io_graph_item_t, std::allocator<_io_graph_item_t>>::_Vector_impl" = type { %"struct.std::_Vector_base<_io_graph_item_t, std::allocator<_io_graph_item_t>>::_Vector_impl_data" }
%"struct.std::_Vector_base<_io_graph_item_t, std::allocator<_io_graph_item_t>>::_Vector_impl_data" = type { ptr, ptr, ptr }

; Function Attrs: mustprogress null_pointer_is_valid sspstrong uwtable
define void @_ZN7IOGraph17removeTapListenerEv(ptr noundef align 8 dereferenceable_or_null(252) %0) #3 align 2 {
  %2 = alloca ptr, align 8
  store ptr %0, ptr %2, align 8
  %3 = load ptr, ptr %2, align 8
  %4 = getelementptr inbounds nuw %class.IOGraph, ptr %3, i32 0, i32 6
  %5 = load i8, ptr %4, align 8, !range !6, !noundef !7
  %6 = trunc i8 %5 to i1
  br i1 %6, label %7, label %9

7:                                                ; preds = %1
  call void @remove_tap_listener(ptr noundef %3)
  %8 = getelementptr inbounds nuw %class.IOGraph, ptr %3, i32 0, i32 6
  store i8 0, ptr %8, align 8
  br label %9

9:                                                ; preds = %7, %1
  ret void
}

; Function Attrs: mustprogress null_pointer_is_valid sspstrong uwtable
define void @_ZN7IOGraph12captureEventE12CaptureEvent(ptr noundef align 8 dereferenceable_or_null(252) %0, ptr noundef %1) #3 align 2 {
  %3 = alloca ptr, align 8
  %4 = alloca ptr, align 8
  store ptr %0, ptr %3, align 8
  store ptr %1, ptr %4, align 8
  %5 = load ptr, ptr %3, align 8
  %6 = call noundef i32 @_ZNK12CaptureEvent14captureContextEv(ptr noundef align 8 dereferenceable_or_null(40) %1)
  %7 = icmp eq i32 %6, 2
  br i1 %7, label %8, label %12

8:                                                ; preds = %2
  %9 = call noundef i32 @_ZNK12CaptureEvent9eventTypeEv(ptr noundef align 8 dereferenceable_or_null(40) %1)
  %10 = icmp eq i32 %9, 8
  br i1 %10, label %11, label %12

11:                                               ; preds = %8
  call void @_ZN7IOGraph17removeTapListenerEv(ptr noundef align 8 dereferenceable_or_null(252) %5)
  br label %12

12:                                               ; preds = %11, %8, %2
  ret void
}