; Function Attrs: mustprogress null_pointer_is_valid sspstrong uwtable
define void @_ZN7IOGraph12captureEventE12CaptureEvent(ptr noundef align 8 dereferenceable_or_null(252) %0, ptr noundef %1) #2 align 2 {
  %3 = tail call noundef i32 @_ZNK12CaptureEvent14captureContextEv(ptr noundef align 8 dereferenceable_or_null(40) %1)
  %4 = icmp eq i32 %3, 2
  br i1 %4, label %5, label %_ZN7IOGraph17removeTapListenerEv.exit

5:                                                ; preds = %2
  %6 = tail call noundef i32 @_ZNK12CaptureEvent9eventTypeEv(ptr noundef align 8 dereferenceable_or_null(40) %1)
  %7 = icmp eq i32 %6, 8
  br i1 %7, label %8, label %_ZN7IOGraph17removeTapListenerEv.exit

8:                                                ; preds = %5
  %9 = getelementptr inbounds nuw i8, ptr %0, i64 80
  %10 = load i8, ptr %9, align 8, !range !12, !noundef !13
  %11 = trunc nuw i8 %10 to i1
  br i1 %11, label %12, label %_ZN7IOGraph17removeTapListenerEv.exit

12:                                               ; preds = %8
  tail call void @remove_tap_listener(ptr noundef align 8 dereferenceable_or_null(252) %0)
  store i8 0, ptr %9, align 8
  br label %_ZN7IOGraph17removeTapListenerEv.exit

_ZN7IOGraph17removeTapListenerEv.exit:            ; preds = %12, %8, %5, %2
  ret void
}